target datalayout = "e-m:e-p270:32:32-p271:32:32-p272:64:64-i64:64-i128:128-f80:128-n8:16:32:64-S128"
target triple = "x86_64-pc-linux-gnu"

@.str.26 = private unnamed_addr constant [36 x i8] c"%s removes a PostgreSQL database.\0A\0A\00", align 1
@.str.27 = private unnamed_addr constant [8 x i8] c"Usage:\0A\00", align 1
@.str.28 = private unnamed_addr constant [25 x i8] c"  %s [OPTION]... DBNAME\0A\00", align 1
@.str.29 = private unnamed_addr constant [11 x i8] c"\0AOptions:\0A\00", align 1
@.str.30 = private unnamed_addr constant [72 x i8] c"  -e, --echo                show the commands being sent to the server\0A\00", align 1
@.str.31 = private unnamed_addr constant [80 x i8] c"  -f, --force               try to terminate other connections before dropping\0A\00", align 1
@.str.32 = private unnamed_addr constant [61 x i8] c"  -i, --interactive         prompt before deleting anything\0A\00", align 1
@.str.33 = private unnamed_addr constant [67 x i8] c"  -V, --version             output version information, then exit\0A\00", align 1
@.str.34 = private unnamed_addr constant [74 x i8] c"  --if-exists               don't report error if database doesn't exist\0A\00", align 1
@.str.35 = private unnamed_addr constant [55 x i8] c"  -?, --help                show this help, then exit\0A\00", align 1
@.str.36 = private unnamed_addr constant [22 x i8] c"\0AConnection options:\0A\00", align 1
@.str.37 = private unnamed_addr constant [70 x i8] c"  -h, --host=HOSTNAME       database server host or socket directory\0A\00", align 1
@.str.38 = private unnamed_addr constant [50 x i8] c"  -p, --port=PORT           database server port\0A\00", align 1
@.str.39 = private unnamed_addr constant [53 x i8] c"  -U, --username=USERNAME   user name to connect as\0A\00", align 1
@.str.40 = private unnamed_addr constant [55 x i8] c"  -w, --no-password         never prompt for password\0A\00", align 1
@.str.41 = private unnamed_addr constant [51 x i8] c"  -W, --password            force password prompt\0A\00", align 1
@.str.42 = private unnamed_addr constant [60 x i8] c"  --maintenance-db=DBNAME   alternate maintenance database\0A\00", align 1
@.str.43 = private unnamed_addr constant [23 x i8] c"\0AReport bugs to <%s>.\0A\00", align 1
@.str.44 = private unnamed_addr constant [32 x i8] c"pgsql-bugs@lists.postgresql.org\00", align 1
@.str.45 = private unnamed_addr constant [20 x i8] c"%s home page: <%s>\0A\00", align 1
@.str.46 = private unnamed_addr constant [11 x i8] c"PostgreSQL\00", align 1
@.str.47 = private unnamed_addr constant [28 x i8] c"https://www.postgresql.org/\00", align 1

; Function Attrs: nounwind uwtable
define internal void @help(ptr noundef %0) #0 {
  %2 = alloca ptr, align 8
  store ptr %0, ptr %2, align 8
  %3 = load ptr, ptr %2, align 8
  %4 = call i32 (ptr, ...) @pg_printf(ptr noundef @.str.26, ptr noundef %3)
  %5 = call i32 (ptr, ...) @pg_printf(ptr noundef @.str.27)
  %6 = load ptr, ptr %2, align 8
  %7 = call i32 (ptr, ...) @pg_printf(ptr noundef @.str.28, ptr noundef %6)
  %8 = call i32 (ptr, ...) @pg_printf(ptr noundef @.str.29)
  %9 = call i32 (ptr, ...) @pg_printf(ptr noundef @.str.30)
  %10 = call i32 (ptr, ...) @pg_printf(ptr noundef @.str.31)
  %11 = call i32 (ptr, ...) @pg_printf(ptr noundef @.str.32)
  %12 = call i32 (ptr, ...) @pg_printf(ptr noundef @.str.33)
  %13 = call i32 (ptr, ...) @pg_printf(ptr noundef @.str.34)
  %14 = call i32 (ptr, ...) @pg_printf(ptr noundef @.str.35)
  %15 = call i32 (ptr, ...) @pg_printf(ptr noundef @.str.36)
  %16 = call i32 (ptr, ...) @pg_printf(ptr noundef @.str.37)
  %17 = call i32 (ptr, ...) @pg_printf(ptr noundef @.str.38)
  %18 = call i32 (ptr, ...) @pg_printf(ptr noundef @.str.39)
  %19 = call i32 (ptr, ...) @pg_printf(ptr noundef @.str.40)
  %20 = call i32 (ptr, ...) @pg_printf(ptr noundef @.str.41)
  %21 = call i32 (ptr, ...) @pg_printf(ptr noundef @.str.42)
  %22 = call i32 (ptr, ...) @pg_printf(ptr noundef @.str.43, ptr noundef @.str.44)
  %23 = call i32 (ptr, ...) @pg_printf(ptr noundef @.str.45, ptr noundef @.str.46, ptr noundef @.str.47)
  ret void
}